#include <math.h>
#include <stdio.h>
#include <stdlib.h>
#include <string.h>

int main()
{
	int a[16],i,j,h,t=0,flag=1;
	while(flag==1){
		for(i=0;i<16;i++){
			scanf("%d",&a[i]);
			if(a[i]==-1) {flag=0;break;}
			if(a[i]==0) {h=i;break;}
		}
		if(flag==1){
		for(i=0;i<h;i++){
			for(j=0;j<h;j++)
				if(a[i]==2*a[j]) t++;
		}
		printf("%d\n",t);t=0;}
	}
	return 0;
}
